target datalayout = "e-m:e-p270:32:32-p271:32:32-p272:64:64-i64:64-i128:128-f80:128-n8:16:32:64-S128"
target triple = "x86_64-unknown-linux-gnu"

%struct.RBRootLeftCached = type { %struct.RBRoot, ptr }
%struct.RBRoot = type { ptr }
%struct.IntervalTreeNode = type { %struct.RBNode, i64, i64, i64 }
%struct.RBNode = type { i64, ptr, ptr }

@shm_regions = internal global %struct.RBRootLeftCached zeroinitializer, align 8

; Function Attrs: nounwind sspstrong uwtable
define internal void @shm_region_rm_complete(i64 noundef %start, i64 noundef %last) #0 {
entry:
  %start.addr = alloca i64, align 8
  %last.addr = alloca i64, align 8
  %i = alloca ptr, align 8
  %n = alloca ptr, align 8
  store i64 %start, ptr %start.addr, align 8
  store i64 %last, ptr %last.addr, align 8
  %0 = load i64, ptr %start.addr, align 8
  %1 = load i64, ptr %last.addr, align 8
  %call = call ptr @interval_tree_iter_first(ptr noundef @shm_regions, i64 noundef %0, i64 noundef %1)
  store ptr %call, ptr %i, align 8
  br label %for.cond

for.cond:                                         ; preds = %for.inc, %entry
  %2 = load ptr, ptr %i, align 8
  %tobool = icmp ne ptr %2, null
  br i1 %tobool, label %for.body, label %for.end

for.body:                                         ; preds = %for.cond
  %3 = load ptr, ptr %i, align 8
  %4 = load i64, ptr %start.addr, align 8
  %5 = load i64, ptr %last.addr, align 8
  %call1 = call ptr @interval_tree_iter_next(ptr noundef %3, i64 noundef %4, i64 noundef %5)
  store ptr %call1, ptr %n, align 8
  %6 = load ptr, ptr %i, align 8
  %start2 = getelementptr inbounds %struct.IntervalTreeNode, ptr %6, i32 0, i32 1
  %7 = load i64, ptr %start2, align 8
  %8 = load i64, ptr %start.addr, align 8
  %cmp = icmp uge i64 %7, %8
  br i1 %cmp, label %land.lhs.true, label %if.end

land.lhs.true:                                    ; preds = %for.body
  %9 = load ptr, ptr %i, align 8
  %last3 = getelementptr inbounds %struct.IntervalTreeNode, ptr %9, i32 0, i32 2
  %10 = load i64, ptr %last3, align 8
  %11 = load i64, ptr %last.addr, align 8
  %cmp4 = icmp ule i64 %10, %11
  br i1 %cmp4, label %if.then, label %if.end

if.then:                                          ; preds = %land.lhs.true
  %12 = load ptr, ptr %i, align 8
  call void @interval_tree_remove(ptr noundef %12, ptr noundef @shm_regions)
  %13 = load ptr, ptr %i, align 8
  call void @g_free(ptr noundef %13)
  br label %if.end

if.end:                                           ; preds = %if.then, %land.lhs.true, %for.body
  br label %for.inc

for.inc:                                          ; preds = %if.end
  %14 = load ptr, ptr %n, align 8
  store ptr %14, ptr %i, align 8
  br label %for.cond, !llvm.loop !13

for.end:                                          ; preds = %for.cond
  ret void
}