; Function Attrs: nounwind sspstrong uwtable
define internal fastcc void @shm_region_rm_complete(i64 noundef %start, i64 noundef %last) unnamed_addr #0 {
entry:
  %call = tail call ptr @interval_tree_iter_first(ptr noundef nonnull @shm_regions, i64 noundef %start, i64 noundef %last) #14
  %tobool.not10 = icmp eq ptr %call, null
  br i1 %tobool.not10, label %for.end, label %for.body

for.body:                                         ; preds = %entry, %for.inc
  %i.011 = phi ptr [ %call1, %for.inc ], [ %call, %entry ]
  %call1 = tail call ptr @interval_tree_iter_next(ptr noundef nonnull %i.011, i64 noundef %start, i64 noundef %last) #14
  %start2 = getelementptr inbounds nuw i8, ptr %i.011, i64 24
  %0 = load i64, ptr %start2, align 8
  %cmp.not = icmp ult i64 %0, %start
  br i1 %cmp.not, label %for.inc, label %land.lhs.true

land.lhs.true:                                    ; preds = %for.body
  %last3 = getelementptr inbounds nuw i8, ptr %i.011, i64 32
  %1 = load i64, ptr %last3, align 8
  %cmp4.not = icmp ugt i64 %1, %last
  br i1 %cmp4.not, label %for.inc, label %if.then

if.then:                                          ; preds = %land.lhs.true
  tail call void @interval_tree_remove(ptr noundef nonnull %i.011, ptr noundef nonnull @shm_regions) #14
  tail call void @g_free(ptr noundef nonnull %i.011) #14
  br label %for.inc

for.inc:                                          ; preds = %for.body, %land.lhs.true, %if.then
  %tobool.not = icmp eq ptr %call1, null
  br i1 %tobool.not, label %for.end, label %for.body, !llvm.loop !13

for.end:                                          ; preds = %for.inc, %entry
  ret void
}